CCS PCM C Compiler, Version 5.007, 61971               20-mar-24 09:14

               Filename:   C:\Users\Ivina\Desktop\Microcontroladores e DSPS\semáforo com display\sema-display.lst

               ROM used:   162 words (8%)
                           Largest free fragment is 1886
               RAM used:   6 (3%) at main() level
                           7 (3%) worst case
               Stack used: 0 locations
               Stack size: 8

*
0000:  MOVLW  00
0001:  MOVWF  0A
0002:  GOTO   019
0003:  NOP
.................... #include <16f628a.h> 
.................... //////// Standard Header file for the PIC16F628A device //////////////// 
.................... #device PIC16F628A 
....................  
.................... #list 
....................  
.................... #use delay(clock=4000000) 
0004:  MOVLW  22
0005:  MOVWF  04
0006:  BCF    03.7
0007:  MOVF   00,W
0008:  BTFSC  03.2
0009:  GOTO   018
000A:  MOVLW  01
000B:  MOVWF  78
000C:  CLRF   77
000D:  DECFSZ 77,F
000E:  GOTO   00D
000F:  DECFSZ 78,F
0010:  GOTO   00C
0011:  MOVLW  4A
0012:  MOVWF  77
0013:  DECFSZ 77,F
0014:  GOTO   013
0015:  GOTO   016
0016:  DECFSZ 00,F
0017:  GOTO   00A
0018:  RETURN
.................... #fuses INTRC_IO,NOWDT,PUT,BROWNOUT,NOLVP,NOMCLR 
....................  
.................... #define SEMAPHORE1_LED_RED PIN_B0 
.................... #define SEMAPHORE1_LED_YELLOW PIN_B1 
.................... #define SEMAPHORE1_LED_GREEN PIN_B2 
....................  
.................... #define SEMAPHORE2_LED_RED PIN_B3 
.................... #define SEMAPHORE2_LED_YELLOW PIN_B4 
.................... #define SEMAPHORE2_LED_GREEN PIN_B5 
....................  
.................... #define BUTTON_PIN PIN_B6 
....................  
.................... void main() { 
0019:  MOVLW  07
001A:  MOVWF  1F
001B:  BCF    03.7
001C:  MOVLW  1F
001D:  ANDWF  03,F
....................     //setup_adc_ports(NO_ANALOGS);  // Configura todos os pinos como digitais 
....................     //setup_adc(ADC_OFF);            // Desliga o módulo ADC 
....................     setup_timer_0(RTCC_INTERNAL|RTCC_DIV_8); // Configura timer 0 
001E:  BSF    03.5
001F:  MOVF   01,W
0020:  ANDLW  C0
0021:  IORLW  02
0022:  MOVWF  01
....................     set_timer0(0);                 // Zera o timer 0 
0023:  BCF    03.5
0024:  CLRF   01
....................      
....................     output_low(SEMAPHORE1_LED_RED); 
0025:  BSF    03.5
0026:  BCF    06.0
0027:  BCF    03.5
0028:  BCF    06.0
....................     output_low(SEMAPHORE1_LED_YELLOW); 
0029:  BSF    03.5
002A:  BCF    06.1
002B:  BCF    03.5
002C:  BCF    06.1
....................     output_low(SEMAPHORE1_LED_GREEN); 
002D:  BSF    03.5
002E:  BCF    06.2
002F:  BCF    03.5
0030:  BCF    06.2
....................      
....................     output_low(SEMAPHORE2_LED_RED); 
0031:  BSF    03.5
0032:  BCF    06.3
0033:  BCF    03.5
0034:  BCF    06.3
....................     output_low(SEMAPHORE2_LED_YELLOW); 
0035:  BSF    03.5
0036:  BCF    06.4
0037:  BCF    03.5
0038:  BCF    06.4
....................     output_low(SEMAPHORE2_LED_GREEN); 
0039:  BSF    03.5
003A:  BCF    06.5
003B:  BCF    03.5
003C:  BCF    06.5
....................      
....................     output_high(BUTTON_PIN); // Habilita pull-up interno 
003D:  BSF    03.5
003E:  BCF    06.6
003F:  BCF    03.5
0040:  BSF    06.6
....................      
....................     while(TRUE) { 
....................         // Verifica se o botão foi pressionado 
....................         if(input(BUTTON_PIN) == 0) { 
0041:  BSF    03.5
0042:  BSF    06.6
0043:  BCF    03.5
0044:  BTFSC  06.6
0045:  GOTO   0A0
....................             // Botão pressionado, ativa o semáforo 1 
....................             output_high(SEMAPHORE1_LED_GREEN); 
0046:  BSF    03.5
0047:  BCF    06.2
0048:  BCF    03.5
0049:  BSF    06.2
....................             delay_ms(1000); // Aguarda 6 segundos 
004A:  MOVLW  04
004B:  MOVWF  21
004C:  MOVLW  FA
004D:  MOVWF  22
004E:  CALL   004
004F:  DECFSZ 21,F
0050:  GOTO   04C
....................              
....................             output_low(SEMAPHORE1_LED_GREEN); 
0051:  BSF    03.5
0052:  BCF    06.2
0053:  BCF    03.5
0054:  BCF    06.2
....................             output_high(SEMAPHORE1_LED_YELLOW); 
0055:  BSF    03.5
0056:  BCF    06.1
0057:  BCF    03.5
0058:  BSF    06.1
....................             delay_ms(2000); // Aguarda 3 segundos 
0059:  MOVLW  08
005A:  MOVWF  21
005B:  MOVLW  FA
005C:  MOVWF  22
005D:  CALL   004
005E:  DECFSZ 21,F
005F:  GOTO   05B
....................              
....................             output_low(SEMAPHORE1_LED_YELLOW); 
0060:  BSF    03.5
0061:  BCF    06.1
0062:  BCF    03.5
0063:  BCF    06.1
....................             output_high(SEMAPHORE1_LED_RED); 
0064:  BSF    03.5
0065:  BCF    06.0
0066:  BCF    03.5
0067:  BSF    06.0
....................             delay_ms(1000); // Aguarda 6 segundos 
0068:  MOVLW  04
0069:  MOVWF  21
006A:  MOVLW  FA
006B:  MOVWF  22
006C:  CALL   004
006D:  DECFSZ 21,F
006E:  GOTO   06A
....................              
....................             output_low(SEMAPHORE1_LED_RED); 
006F:  BSF    03.5
0070:  BCF    06.0
0071:  BCF    03.5
0072:  BCF    06.0
....................              
....................             // Ativa o semáforo 2 
....................             output_high(SEMAPHORE2_LED_GREEN); 
0073:  BSF    03.5
0074:  BCF    06.5
0075:  BCF    03.5
0076:  BSF    06.5
....................             delay_ms(1000); // Aguarda 6 segundos 
0077:  MOVLW  04
0078:  MOVWF  21
0079:  MOVLW  FA
007A:  MOVWF  22
007B:  CALL   004
007C:  DECFSZ 21,F
007D:  GOTO   079
....................              
....................             output_low(SEMAPHORE2_LED_GREEN); 
007E:  BSF    03.5
007F:  BCF    06.5
0080:  BCF    03.5
0081:  BCF    06.5
....................             output_high(SEMAPHORE2_LED_YELLOW); 
0082:  BSF    03.5
0083:  BCF    06.4
0084:  BCF    03.5
0085:  BSF    06.4
....................             delay_ms(1000); // Aguarda 3 segundos 
0086:  MOVLW  04
0087:  MOVWF  21
0088:  MOVLW  FA
0089:  MOVWF  22
008A:  CALL   004
008B:  DECFSZ 21,F
008C:  GOTO   088
....................              
....................             output_low(SEMAPHORE2_LED_YELLOW); 
008D:  BSF    03.5
008E:  BCF    06.4
008F:  BCF    03.5
0090:  BCF    06.4
....................             output_high(SEMAPHORE2_LED_RED); 
0091:  BSF    03.5
0092:  BCF    06.3
0093:  BCF    03.5
0094:  BSF    06.3
....................             delay_ms(1000); // Aguarda 6 segundos 
0095:  MOVLW  04
0096:  MOVWF  21
0097:  MOVLW  FA
0098:  MOVWF  22
0099:  CALL   004
009A:  DECFSZ 21,F
009B:  GOTO   097
....................              
....................             output_low(SEMAPHORE2_LED_RED); 
009C:  BSF    03.5
009D:  BCF    06.3
009E:  BCF    03.5
009F:  BCF    06.3
....................         } 
00A0:  GOTO   041
....................     } 
.................... } 
....................  
00A1:  SLEEP

Configuration Fuses:
   Word  1: 3F50   NOWDT PUT INTRC_IO NOMCLR BROWNOUT NOLVP NOCPD NOPROTECT
